; Function Attrs: mustprogress uwtable
define dso_local noundef ptr @_ZN8Constant8make_intEi(i32 noundef %0) local_unnamed_addr #3 align 2 personality ptr @__gxx_personality_v0 {
  %2 = alloca %"class.std::__cxx11::basic_ostringstream", align 8
  %3 = alloca %"class.std::__cxx11::basic_string", align 8
  %4 = alloca %"class.std::__cxx11::basic_string", align 8
  %5 = alloca %"class.std::__cxx11::basic_string", align 8
  %6 = tail call noundef nonnull align 8 dereferenceable(136) ptr @_ZN4Type15get_simple_typeE11eSimpleType(i32 noundef 2)
  %7 = load i32, ptr @_ZN5Error8r_error_E, align 4
  %.not = icmp eq i32 %7, 0
  br i1 %.not, label %8, label %41

8:                                                ; preds = %1
  call void @_ZNSt7__cxx1119basic_ostringstreamIcSt11char_traitsIcESaIcEEC1Ev(ptr noundef nonnull align 8 dereferenceable(112) %2)
  %9 = invoke noundef nonnull align 8 dereferenceable(8) ptr @_ZNSolsEi(ptr noundef nonnull align 8 dereferenceable(8) %2, i32 noundef %0)
          to label %10 unwind label %26

10:                                               ; preds = %8
  %11 = invoke noundef zeroext i1 @_ZN9CGOptions18mark_mutable_constEv()
          to label %12 unwind label %26

12:                                               ; preds = %10
  br i1 %11, label %13, label %18

13:                                               ; preds = %12
  invoke void @_ZNKSt7__cxx1119basic_ostringstreamIcSt11char_traitsIcESaIcEE3strEv(ptr dead_on_unwind nonnull writable sret(%"class.std::__cxx11::basic_string") align 8 %5, ptr noundef nonnull align 8 dereferenceable(112) %2)
          to label %14 unwind label %26

14:                                               ; preds = %13
  %15 = invoke noundef nonnull align 8 dereferenceable(32) ptr @_ZNSt7__cxx1112basic_stringIcSt11char_traitsIcESaIcEE6insertEmPKc(ptr noundef nonnull align 8 dereferenceable(32) %5, i64 noundef 0, ptr noundef nonnull @.str.16)
          to label %16 unwind label %28

16:                                               ; preds = %14
  call void @_ZNSt7__cxx1112basic_stringIcSt11char_traitsIcESaIcEEC1EOS4_(ptr noundef nonnull align 8 dereferenceable(32) %4, ptr noundef nonnull align 8 dereferenceable(32) %15) #16
  %17 = invoke noundef nonnull align 8 dereferenceable(32) ptr @_ZNSt7__cxx1112basic_stringIcSt11char_traitsIcESaIcEE6appendEPKc(ptr noundef nonnull align 8 dereferenceable(32) %4, ptr noundef nonnull @.str.17)
          to label %19 unwind label %30

18:                                               ; preds = %12
  invoke void @_ZNKSt7__cxx1119basic_ostringstreamIcSt11char_traitsIcESaIcEE3strEv(ptr dead_on_unwind nonnull writable sret(%"class.std::__cxx11::basic_string") align 8 %3, ptr noundef nonnull align 8 dereferenceable(112) %2)
          to label %.critedge unwind label %32

19:                                               ; preds = %16
  call void @_ZNSt7__cxx1112basic_stringIcSt11char_traitsIcESaIcEEC1EOS4_(ptr noundef nonnull align 8 dereferenceable(32) %3, ptr noundef nonnull align 8 dereferenceable(32) %17) #16
  call void @_ZNSt7__cxx1112basic_stringIcSt11char_traitsIcESaIcEED1Ev(ptr noundef nonnull align 8 dereferenceable(32) %4) #16
  call void @_ZNSt7__cxx1112basic_stringIcSt11char_traitsIcESaIcEED1Ev(ptr noundef nonnull align 8 dereferenceable(32) %5) #16
  br label %.critedge

.critedge:                                        ; preds = %18, %19
  %20 = invoke noalias noundef nonnull dereferenceable(64) ptr @_Znwm(i64 noundef 64) #18
          to label %21 unwind label %35

21:                                               ; preds = %.critedge
  invoke void @_ZN10ExpressionC2E9eTermType(ptr noundef nonnull align 8 dereferenceable(24) %20, i32 noundef 0)
          to label %.noexc unwind label %37

.noexc:                                           ; preds = %21
  store ptr getelementptr inbounds ({ [24 x ptr] }, ptr @_ZTV8Constant, i64 0, i32 0, i64 2), ptr %20, align 8
  %22 = getelementptr inbounds i8, ptr %20, i64 24
  store ptr %6, ptr %22, align 8
  %23 = getelementptr inbounds i8, ptr %20, i64 32
  invoke void @_ZNSt7__cxx1112basic_stringIcSt11char_traitsIcESaIcEEC1ERKS4_(ptr noundef nonnull align 8 dereferenceable(32) %23, ptr noundef nonnull align 8 dereferenceable(32) %3)
          to label %_ZN8ConstantC2EPK4TypeRKNSt7__cxx1112basic_stringIcSt11char_traitsIcESaIcEEE.exit unwind label %24

24:                                               ; preds = %.noexc
  %25 = landingpad { ptr, i32 }
          cleanup
  call void @_ZN10ExpressionD2Ev(ptr noundef nonnull align 8 dereferenceable(24) %20) #16
  br label %.body

_ZN8ConstantC2EPK4TypeRKNSt7__cxx1112basic_stringIcSt11char_traitsIcESaIcEEE.exit: ; preds = %.noexc
  call void @_ZNSt7__cxx1112basic_stringIcSt11char_traitsIcESaIcEED1Ev(ptr noundef nonnull align 8 dereferenceable(32) %3) #16
  call void @_ZNSt7__cxx1119basic_ostringstreamIcSt11char_traitsIcESaIcEED1Ev(ptr noundef nonnull align 8 dereferenceable(112) %2) #16
  br label %41

26:                                               ; preds = %13, %10, %8
  %27 = landingpad { ptr, i32 }
          cleanup
  br label %40

28:                                               ; preds = %14
  %29 = landingpad { ptr, i32 }
          cleanup
  br label %34

30:                                               ; preds = %16
  %31 = landingpad { ptr, i32 }
          cleanup
  call void @_ZNSt7__cxx1112basic_stringIcSt11char_traitsIcESaIcEED1Ev(ptr noundef nonnull align 8 dereferenceable(32) %4) #16
  br label %34

32:                                               ; preds = %18
  %33 = landingpad { ptr, i32 }
          cleanup
  br label %40

34:                                               ; preds = %30, %28
  %.pn.ph = phi { ptr, i32 } [ %29, %28 ], [ %31, %30 ]
  call void @_ZNSt7__cxx1112basic_stringIcSt11char_traitsIcESaIcEED1Ev(ptr noundef nonnull align 8 dereferenceable(32) %5) #16
  br label %40

35:                                               ; preds = %.critedge
  %36 = landingpad { ptr, i32 }
          cleanup
  br label %39

37:                                               ; preds = %21
  %38 = landingpad { ptr, i32 }
          cleanup
  br label %.body

.body:                                            ; preds = %24, %37
  %eh.lpad-body = phi { ptr, i32 } [ %38, %37 ], [ %25, %24 ]
  call void @_ZdlPv(ptr noundef nonnull %20) #17
  br label %39

39:                                               ; preds = %.body, %35
  %.pn18 = phi { ptr, i32 } [ %eh.lpad-body, %.body ], [ %36, %35 ]
  call void @_ZNSt7__cxx1112basic_stringIcSt11char_traitsIcESaIcEED1Ev(ptr noundef nonnull align 8 dereferenceable(32) %3) #16
  br label %40

40:                                               ; preds = %32, %34, %39, %26
  %.pn18.pn = phi { ptr, i32 } [ %.pn18, %39 ], [ %.pn.ph, %34 ], [ %33, %32 ], [ %27, %26 ]
  call void @_ZNSt7__cxx1119basic_ostringstreamIcSt11char_traitsIcESaIcEED1Ev(ptr noundef nonnull align 8 dereferenceable(112) %2) #16
  resume { ptr, i32 } %.pn18.pn

41:                                               ; preds = %1, %_ZN8ConstantC2EPK4TypeRKNSt7__cxx1112basic_stringIcSt11char_traitsIcESaIcEEE.exit
  %.016 = phi ptr [ %20, %_ZN8ConstantC2EPK4TypeRKNSt7__cxx1112basic_stringIcSt11char_traitsIcESaIcEEE.exit ], [ null, %1 ]
  ret ptr %.016
}